; Function Attrs: nounwind uwtable
define internal ptr @aria192ccm_dupctx(ptr noundef %0) #0 {
  %2 = icmp eq ptr %0, null
  br i1 %2, label %aria_ccm_dupctx.exit, label %3

3:                                                ; preds = %1
  %4 = tail call noalias ptr @CRYPTO_memdup(ptr noundef nonnull %0, i64 noundef 432, ptr noundef nonnull @.str, i32 noundef 39) #2
  %.not.i = icmp eq ptr %4, null
  br i1 %.not.i, label %aria_ccm_dupctx.exit, label %5

5:                                                ; preds = %3
  %6 = getelementptr inbounds nuw i8, ptr %4, i64 128
  %7 = load ptr, ptr %6, align 8, !tbaa !3
  %.not11.i = icmp eq ptr %7, null
  br i1 %.not11.i, label %aria_ccm_dupctx.exit, label %8

8:                                                ; preds = %5
  %9 = getelementptr inbounds nuw i8, ptr %4, i64 152
  store ptr %9, ptr %6, align 8, !tbaa !3
  br label %aria_ccm_dupctx.exit

aria_ccm_dupctx.exit:                             ; preds = %1, %3, %5, %8
  %.0.i = phi ptr [ null, %1 ], [ %4, %8 ], [ %4, %5 ], [ null, %3 ]
  ret ptr %.0.i
}